target datalayout = "e-m:e-p270:32:32-p271:32:32-p272:64:64-i64:64-i128:128-f80:128-n8:16:32:64-S128"
target triple = "x86_64-pc-linux-gnu"

%struct.FxuHeapSingle = type { ptr, i32, i32, i32 }
%struct.FxuSingle = type { i32, i32, i32, ptr, ptr, ptr, ptr }

; Function Attrs: nounwind uwtable
define internal void @Fxu_HeapSingleSwap(ptr noundef %0, ptr noundef %1) #0 {
  %3 = alloca ptr, align 8
  %4 = alloca ptr, align 8
  %5 = alloca ptr, align 8
  %6 = alloca i32, align 4
  store ptr %0, ptr %3, align 8, !tbaa !27
  store ptr %1, ptr %4, align 8, !tbaa !27
  call void @llvm.lifetime.start.p0(i64 8, ptr %5) #6
  call void @llvm.lifetime.start.p0(i64 4, ptr %6) #6
  %7 = load ptr, ptr %3, align 8, !tbaa !27
  %8 = load ptr, ptr %7, align 8, !tbaa !14
  store ptr %8, ptr %5, align 8, !tbaa !14
  %9 = load ptr, ptr %4, align 8, !tbaa !27
  %10 = load ptr, ptr %9, align 8, !tbaa !14
  %11 = load ptr, ptr %3, align 8, !tbaa !27
  store ptr %10, ptr %11, align 8, !tbaa !14
  %12 = load ptr, ptr %5, align 8, !tbaa !14
  %13 = load ptr, ptr %4, align 8, !tbaa !27
  store ptr %12, ptr %13, align 8, !tbaa !14
  %14 = load ptr, ptr %3, align 8, !tbaa !27
  %15 = load ptr, ptr %14, align 8, !tbaa !14
  %16 = getelementptr inbounds nuw %struct.FxuSingle, ptr %15, i32 0, i32 1
  %17 = load i32, ptr %16, align 4, !tbaa !26
  store i32 %17, ptr %6, align 4, !tbaa !16
  %18 = load ptr, ptr %4, align 8, !tbaa !27
  %19 = load ptr, ptr %18, align 8, !tbaa !14
  %20 = getelementptr inbounds nuw %struct.FxuSingle, ptr %19, i32 0, i32 1
  %21 = load i32, ptr %20, align 4, !tbaa !26
  %22 = load ptr, ptr %3, align 8, !tbaa !27
  %23 = load ptr, ptr %22, align 8, !tbaa !14
  %24 = getelementptr inbounds nuw %struct.FxuSingle, ptr %23, i32 0, i32 1
  store i32 %21, ptr %24, align 4, !tbaa !26
  %25 = load i32, ptr %6, align 4, !tbaa !16
  %26 = load ptr, ptr %4, align 8, !tbaa !27
  %27 = load ptr, ptr %26, align 8, !tbaa !14
  %28 = getelementptr inbounds nuw %struct.FxuSingle, ptr %27, i32 0, i32 1
  store i32 %25, ptr %28, align 4, !tbaa !26
  call void @llvm.lifetime.end.p0(i64 4, ptr %6) #6
  call void @llvm.lifetime.end.p0(i64 8, ptr %5) #6
  ret void
}

; Function Attrs: nounwind uwtable
define internal void @Fxu_HeapSingleMoveDn(ptr noundef %0, ptr noundef %1) #0 {
  %3 = alloca ptr, align 8
  %4 = alloca ptr, align 8
  %5 = alloca ptr, align 8
  %6 = alloca ptr, align 8
  %7 = alloca ptr, align 8
  store ptr %0, ptr %3, align 8, !tbaa !3
  store ptr %1, ptr %4, align 8, !tbaa !14
  call void @llvm.lifetime.start.p0(i64 8, ptr %5) #6
  call void @llvm.lifetime.start.p0(i64 8, ptr %6) #6
  call void @llvm.lifetime.start.p0(i64 8, ptr %7) #6
  %8 = load ptr, ptr %3, align 8, !tbaa !3
  %9 = getelementptr inbounds nuw %struct.FxuHeapSingle, ptr %8, i32 0, i32 0
  %10 = load ptr, ptr %9, align 8, !tbaa !13
  %11 = load ptr, ptr %4, align 8, !tbaa !14
  %12 = getelementptr inbounds nuw %struct.FxuSingle, ptr %11, i32 0, i32 1
  %13 = load i32, ptr %12, align 4, !tbaa !26
  %14 = sext i32 %13 to i64
  %15 = getelementptr inbounds ptr, ptr %10, i64 %14
  store ptr %15, ptr %7, align 8, !tbaa !27
  br label %16

16:                                               ; preds = %115, %2
  %17 = load ptr, ptr %7, align 8, !tbaa !27
  %18 = load ptr, ptr %17, align 8, !tbaa !14
  %19 = getelementptr inbounds nuw %struct.FxuSingle, ptr %18, i32 0, i32 1
  %20 = load i32, ptr %19, align 4, !tbaa !26
  %21 = shl i32 %20, 1
  %22 = load ptr, ptr %3, align 8, !tbaa !3
  %23 = getelementptr inbounds nuw %struct.FxuHeapSingle, ptr %22, i32 0, i32 1
  %24 = load i32, ptr %23, align 8, !tbaa !8
  %25 = icmp sle i32 %21, %24
  br i1 %25, label %26, label %116

26:                                               ; preds = %16
  %27 = load ptr, ptr %3, align 8, !tbaa !3
  %28 = getelementptr inbounds nuw %struct.FxuHeapSingle, ptr %27, i32 0, i32 0
  %29 = load ptr, ptr %28, align 8, !tbaa !13
  %30 = load ptr, ptr %7, align 8, !tbaa !27
  %31 = load ptr, ptr %30, align 8, !tbaa !14
  %32 = getelementptr inbounds nuw %struct.FxuSingle, ptr %31, i32 0, i32 1
  %33 = load i32, ptr %32, align 4, !tbaa !26
  %34 = shl i32 %33, 1
  %35 = sext i32 %34 to i64
  %36 = getelementptr inbounds ptr, ptr %29, i64 %35
  store ptr %36, ptr %5, align 8, !tbaa !27
  %37 = load ptr, ptr %7, align 8, !tbaa !27
  %38 = load ptr, ptr %37, align 8, !tbaa !14
  %39 = getelementptr inbounds nuw %struct.FxuSingle, ptr %38, i32 0, i32 1
  %40 = load i32, ptr %39, align 4, !tbaa !26
  %41 = shl i32 %40, 1
  %42 = add nsw i32 %41, 1
  %43 = load ptr, ptr %3, align 8, !tbaa !3
  %44 = getelementptr inbounds nuw %struct.FxuHeapSingle, ptr %43, i32 0, i32 1
  %45 = load i32, ptr %44, align 8, !tbaa !8
  %46 = icmp sle i32 %42, %45
  br i1 %46, label %47, label %99

47:                                               ; preds = %26
  %48 = load ptr, ptr %3, align 8, !tbaa !3
  %49 = getelementptr inbounds nuw %struct.FxuHeapSingle, ptr %48, i32 0, i32 0
  %50 = load ptr, ptr %49, align 8, !tbaa !13
  %51 = load ptr, ptr %7, align 8, !tbaa !27
  %52 = load ptr, ptr %51, align 8, !tbaa !14
  %53 = getelementptr inbounds nuw %struct.FxuSingle, ptr %52, i32 0, i32 1
  %54 = load i32, ptr %53, align 4, !tbaa !26
  %55 = shl i32 %54, 1
  %56 = add nsw i32 %55, 1
  %57 = sext i32 %56 to i64
  %58 = getelementptr inbounds ptr, ptr %50, i64 %57
  store ptr %58, ptr %6, align 8, !tbaa !27
  %59 = load ptr, ptr %7, align 8, !tbaa !27
  %60 = load ptr, ptr %59, align 8, !tbaa !14
  %61 = getelementptr inbounds nuw %struct.FxuSingle, ptr %60, i32 0, i32 2
  %62 = load i32, ptr %61, align 8, !tbaa !20
  %63 = load ptr, ptr %5, align 8, !tbaa !27
  %64 = load ptr, ptr %63, align 8, !tbaa !14
  %65 = getelementptr inbounds nuw %struct.FxuSingle, ptr %64, i32 0, i32 2
  %66 = load i32, ptr %65, align 8, !tbaa !20
  %67 = icmp sge i32 %62, %66
  br i1 %67, label %68, label %79

68:                                               ; preds = %47
  %69 = load ptr, ptr %7, align 8, !tbaa !27
  %70 = load ptr, ptr %69, align 8, !tbaa !14
  %71 = getelementptr inbounds nuw %struct.FxuSingle, ptr %70, i32 0, i32 2
  %72 = load i32, ptr %71, align 8, !tbaa !20
  %73 = load ptr, ptr %6, align 8, !tbaa !27
  %74 = load ptr, ptr %73, align 8, !tbaa !14
  %75 = getelementptr inbounds nuw %struct.FxuSingle, ptr %74, i32 0, i32 2
  %76 = load i32, ptr %75, align 8, !tbaa !20
  %77 = icmp sge i32 %72, %76
  br i1 %77, label %78, label %79

78:                                               ; preds = %68
  br label %116

79:                                               ; preds = %68, %47
  %80 = load ptr, ptr %5, align 8, !tbaa !27
  %81 = load ptr, ptr %80, align 8, !tbaa !14
  %82 = getelementptr inbounds nuw %struct.FxuSingle, ptr %81, i32 0, i32 2
  %83 = load i32, ptr %82, align 8, !tbaa !20
  %84 = load ptr, ptr %6, align 8, !tbaa !27
  %85 = load ptr, ptr %84, align 8, !tbaa !14
  %86 = getelementptr inbounds nuw %struct.FxuSingle, ptr %85, i32 0, i32 2
  %87 = load i32, ptr %86, align 8, !tbaa !20
  %88 = icmp sge i32 %83, %87
  br i1 %88, label %89, label %93

89:                                               ; preds = %79
  %90 = load ptr, ptr %7, align 8, !tbaa !27
  %91 = load ptr, ptr %5, align 8, !tbaa !27
  call void @Fxu_HeapSingleSwap(ptr noundef %90, ptr noundef %91)
  %92 = load ptr, ptr %5, align 8, !tbaa !27
  store ptr %92, ptr %7, align 8, !tbaa !27
  br label %97

93:                                               ; preds = %79
  %94 = load ptr, ptr %7, align 8, !tbaa !27
  %95 = load ptr, ptr %6, align 8, !tbaa !27
  call void @Fxu_HeapSingleSwap(ptr noundef %94, ptr noundef %95)
  %96 = load ptr, ptr %6, align 8, !tbaa !27
  store ptr %96, ptr %7, align 8, !tbaa !27
  br label %97

97:                                               ; preds = %93, %89
  br label %98

98:                                               ; preds = %97
  br label %115

99:                                               ; preds = %26
  %100 = load ptr, ptr %7, align 8, !tbaa !27
  %101 = load ptr, ptr %100, align 8, !tbaa !14
  %102 = getelementptr inbounds nuw %struct.FxuSingle, ptr %101, i32 0, i32 2
  %103 = load i32, ptr %102, align 8, !tbaa !20
  %104 = load ptr, ptr %5, align 8, !tbaa !27
  %105 = load ptr, ptr %104, align 8, !tbaa !14
  %106 = getelementptr inbounds nuw %struct.FxuSingle, ptr %105, i32 0, i32 2
  %107 = load i32, ptr %106, align 8, !tbaa !20
  %108 = icmp sge i32 %103, %107
  br i1 %108, label %109, label %110

109:                                              ; preds = %99
  br label %116

110:                                              ; preds = %99
  %111 = load ptr, ptr %7, align 8, !tbaa !27
  %112 = load ptr, ptr %5, align 8, !tbaa !27
  call void @Fxu_HeapSingleSwap(ptr noundef %111, ptr noundef %112)
  %113 = load ptr, ptr %5, align 8, !tbaa !27
  store ptr %113, ptr %7, align 8, !tbaa !27
  br label %114

114:                                              ; preds = %110
  br label %115

115:                                              ; preds = %114, %98
  br label %16, !llvm.loop !29

116:                                              ; preds = %109, %78, %16
  call void @llvm.lifetime.end.p0(i64 8, ptr %7) #6
  call void @llvm.lifetime.end.p0(i64 8, ptr %6) #6
  call void @llvm.lifetime.end.p0(i64 8, ptr %5) #6
  ret void
}

; Function Attrs: nounwind uwtable
define ptr @Fxu_HeapSingleGetMax(ptr noundef %0) #0 {
  %2 = alloca ptr, align 8
  %3 = alloca ptr, align 8
  %4 = alloca ptr, align 8
  %5 = alloca i32, align 4
  store ptr %0, ptr %3, align 8, !tbaa !3
  call void @llvm.lifetime.start.p0(i64 8, ptr %4) #6
  %6 = load ptr, ptr %3, align 8, !tbaa !3
  %7 = getelementptr inbounds nuw %struct.FxuHeapSingle, ptr %6, i32 0, i32 1
  %8 = load i32, ptr %7, align 8, !tbaa !8
  %9 = icmp eq i32 %8, 0
  br i1 %9, label %10, label %11

10:                                               ; preds = %1
  store ptr null, ptr %2, align 8
  store i32 1, ptr %5, align 4
  br label %46

11:                                               ; preds = %1
  %12 = load ptr, ptr %3, align 8, !tbaa !3
  %13 = getelementptr inbounds nuw %struct.FxuHeapSingle, ptr %12, i32 0, i32 0
  %14 = load ptr, ptr %13, align 8, !tbaa !13
  %15 = getelementptr inbounds ptr, ptr %14, i64 1
  %16 = load ptr, ptr %15, align 8, !tbaa !14
  store ptr %16, ptr %4, align 8, !tbaa !14
  %17 = load ptr, ptr %4, align 8, !tbaa !14
  %18 = getelementptr inbounds nuw %struct.FxuSingle, ptr %17, i32 0, i32 1
  store i32 0, ptr %18, align 4, !tbaa !26
  %19 = load ptr, ptr %3, align 8, !tbaa !3
  %20 = getelementptr inbounds nuw %struct.FxuHeapSingle, ptr %19, i32 0, i32 0
  %21 = load ptr, ptr %20, align 8, !tbaa !13
  %22 = load ptr, ptr %3, align 8, !tbaa !3
  %23 = getelementptr inbounds nuw %struct.FxuHeapSingle, ptr %22, i32 0, i32 1
  %24 = load i32, ptr %23, align 8, !tbaa !8
  %25 = add nsw i32 %24, -1
  store i32 %25, ptr %23, align 8, !tbaa !8
  %26 = sext i32 %24 to i64
  %27 = getelementptr inbounds ptr, ptr %21, i64 %26
  %28 = load ptr, ptr %27, align 8, !tbaa !14
  %29 = load ptr, ptr %3, align 8, !tbaa !3
  %30 = getelementptr inbounds nuw %struct.FxuHeapSingle, ptr %29, i32 0, i32 0
  %31 = load ptr, ptr %30, align 8, !tbaa !13
  %32 = getelementptr inbounds ptr, ptr %31, i64 1
  store ptr %28, ptr %32, align 8, !tbaa !14
  %33 = load ptr, ptr %3, align 8, !tbaa !3
  %34 = getelementptr inbounds nuw %struct.FxuHeapSingle, ptr %33, i32 0, i32 0
  %35 = load ptr, ptr %34, align 8, !tbaa !13
  %36 = getelementptr inbounds ptr, ptr %35, i64 1
  %37 = load ptr, ptr %36, align 8, !tbaa !14
  %38 = getelementptr inbounds nuw %struct.FxuSingle, ptr %37, i32 0, i32 1
  store i32 1, ptr %38, align 4, !tbaa !26
  %39 = load ptr, ptr %3, align 8, !tbaa !3
  %40 = load ptr, ptr %3, align 8, !tbaa !3
  %41 = getelementptr inbounds nuw %struct.FxuHeapSingle, ptr %40, i32 0, i32 0
  %42 = load ptr, ptr %41, align 8, !tbaa !13
  %43 = getelementptr inbounds ptr, ptr %42, i64 1
  %44 = load ptr, ptr %43, align 8, !tbaa !14
  call void @Fxu_HeapSingleMoveDn(ptr noundef %39, ptr noundef %44)
  %45 = load ptr, ptr %4, align 8, !tbaa !14
  store ptr %45, ptr %2, align 8
  store i32 1, ptr %5, align 4
  br label %46

46:                                               ; preds = %11, %10
  call void @llvm.lifetime.end.p0(i64 8, ptr %4) #6
  %47 = load ptr, ptr %2, align 8
  ret ptr %47
}